target datalayout = "e-m:e-p270:32:32-p271:32:32-p272:64:64-i64:64-i128:128-f80:128-n8:16:32:64-S128"
target triple = "x86_64-pc-linux-gnu"

%struct.ndef_aux_st = type { ptr, ptr, ptr, ptr, ptr, ptr }

; Function Attrs: nounwind uwtable
define internal i32 @ndef_prefix_free(ptr noundef %0, ptr noundef %1, ptr noundef %2, ptr noundef %3) #0 {
  %5 = alloca i32, align 4
  %6 = alloca ptr, align 8
  %7 = alloca ptr, align 8
  %8 = alloca ptr, align 8
  %9 = alloca ptr, align 8
  %10 = alloca ptr, align 8
  %11 = alloca i32, align 4
  store ptr %0, ptr %6, align 8, !tbaa !6
  store ptr %1, ptr %7, align 8, !tbaa !38
  store ptr %2, ptr %8, align 8, !tbaa !39
  store ptr %3, ptr %9, align 8, !tbaa !41
  call void @llvm.lifetime.start.p0(i64 8, ptr %10) #5
  %12 = load ptr, ptr %9, align 8, !tbaa !41
  %13 = icmp ne ptr %12, null
  br i1 %13, label %15, label %14

14:                                               ; preds = %4
  store i32 0, ptr %5, align 4
  store i32 1, ptr %11, align 4
  br label %31

15:                                               ; preds = %4
  %16 = load ptr, ptr %9, align 8, !tbaa !41
  %17 = load ptr, ptr %16, align 8, !tbaa !15
  store ptr %17, ptr %10, align 8, !tbaa !15
  %18 = load ptr, ptr %10, align 8, !tbaa !15
  %19 = getelementptr inbounds nuw %struct.ndef_aux_st, ptr %18, i32 0, i32 5
  %20 = load ptr, ptr %19, align 8, !tbaa !44
  %21 = icmp ne ptr %20, null
  br i1 %21, label %22, label %26

22:                                               ; preds = %15
  %23 = load ptr, ptr %10, align 8, !tbaa !15
  %24 = getelementptr inbounds nuw %struct.ndef_aux_st, ptr %23, i32 0, i32 5
  %25 = load ptr, ptr %24, align 8, !tbaa !44
  call void @free(ptr noundef %25) #5
  br label %26

26:                                               ; preds = %22, %15
  %27 = load ptr, ptr %10, align 8, !tbaa !15
  %28 = getelementptr inbounds nuw %struct.ndef_aux_st, ptr %27, i32 0, i32 5
  store ptr null, ptr %28, align 8, !tbaa !44
  %29 = load ptr, ptr %7, align 8, !tbaa !38
  store ptr null, ptr %29, align 8, !tbaa !43
  %30 = load ptr, ptr %8, align 8, !tbaa !39
  store i32 0, ptr %30, align 4, !tbaa !42
  store i32 1, ptr %5, align 4
  store i32 1, ptr %11, align 4
  br label %31

31:                                               ; preds = %26, %14
  call void @llvm.lifetime.end.p0(i64 8, ptr %10) #5
  %32 = load i32, ptr %5, align 4
  ret i32 %32
}