; Function Attrs: mustprogress nounwind willreturn uwtable
define internal range(i32 0, 2) i32 @ndef_prefix_free(ptr readnone captures(none) %0, ptr noundef writeonly captures(none) %1, ptr noundef writeonly captures(none) %2, ptr noundef readonly captures(address_is_null) %3) #4 {
  %.not = icmp eq ptr %3, null
  br i1 %.not, label %11, label %5

5:                                                ; preds = %4
  %6 = load ptr, ptr %3, align 8, !tbaa !32
  %7 = getelementptr inbounds nuw i8, ptr %6, i64 40
  %8 = load ptr, ptr %7, align 8, !tbaa !35
  %.not9 = icmp eq ptr %8, null
  br i1 %.not9, label %10, label %9

9:                                                ; preds = %5
  tail call void @free(ptr noundef nonnull %8) #7
  br label %10

10:                                               ; preds = %9, %5
  store ptr null, ptr %7, align 8, !tbaa !35
  store ptr null, ptr %1, align 8, !tbaa !34
  store i32 0, ptr %2, align 4, !tbaa !36
  br label %11

11:                                               ; preds = %4, %10
  %.0 = phi i32 [ 1, %10 ], [ 0, %4 ]
  ret i32 %.0
}